target datalayout = "e-m:e-p270:32:32-p271:32:32-p272:64:64-i64:64-i128:128-f80:128-n8:16:32:64-S128"
target triple = "x86_64-pc-linux-gnu"

%struct._clusterNode = type { i64, [40 x i8], [40 x i8], i32, i64, [2048 x i8], ptr, i32, i32, i32, ptr, ptr, i64, i64, i64, i64, i64, i64, i64, i64, i64, [46 x i8], ptr, ptr, i32, i32, i32, ptr, ptr, ptr }
%struct.sdshdr8 = type { i8, i8, i8, [0 x i8] }
%struct.sdshdr16 = type <{ i16, i16, i8, [0 x i8] }>
%struct.sdshdr32 = type <{ i32, i32, i8, [0 x i8] }>
%struct.sdshdr64 = type <{ i64, i64, i8, [0 x i8] }>

@myself = dso_local global ptr null, align 8

; Function Attrs: nounwind uwtable
define dso_local i32 @getAlignedPingExtSize(i32 noundef %0) #0 {
  %2 = alloca i32, align 4
  store i32 %0, ptr %2, align 4, !tbaa !46
  %3 = load i32, ptr %2, align 4, !tbaa !46
  %4 = add i32 %3, 7
  %5 = udiv i32 %4, 8
  %6 = mul i32 %5, 8
  %7 = zext i32 %6 to i64
  %8 = add i64 8, %7
  %9 = trunc i64 %8 to i32
  ret i32 %9
}

; Function Attrs: inlinehint nounwind uwtable
define internal i64 @sdslen(ptr noundef %0) #5 {
  %2 = alloca i64, align 8
  %3 = alloca ptr, align 8
  %4 = alloca i8, align 1
  %5 = alloca i32, align 4
  store ptr %0, ptr %3, align 8, !tbaa !52
  call void @llvm.lifetime.start.p0(i64 1, ptr %4) #16
  %6 = load ptr, ptr %3, align 8, !tbaa !52
  %7 = getelementptr inbounds i8, ptr %6, i64 -1
  %8 = load i8, ptr %7, align 1, !tbaa !54
  store i8 %8, ptr %4, align 1, !tbaa !54
  %9 = load i8, ptr %4, align 1, !tbaa !54
  %10 = zext i8 %9 to i32
  %11 = and i32 %10, 7
  switch i32 %11, label %40 [
    i32 0, label %12
    i32 1, label %17
    i32 2, label %23
    i32 3, label %29
    i32 4, label %35
  ]

12:                                               ; preds = %1
  %13 = load i8, ptr %4, align 1, !tbaa !54
  %14 = zext i8 %13 to i32
  %15 = ashr i32 %14, 3
  %16 = sext i32 %15 to i64
  store i64 %16, ptr %2, align 8
  store i32 1, ptr %5, align 4
  br label %41

17:                                               ; preds = %1
  %18 = load ptr, ptr %3, align 8, !tbaa !52
  %19 = getelementptr inbounds i8, ptr %18, i64 -3
  %20 = getelementptr inbounds nuw %struct.sdshdr8, ptr %19, i32 0, i32 0
  %21 = load i8, ptr %20, align 1, !tbaa !54
  %22 = zext i8 %21 to i64
  store i64 %22, ptr %2, align 8
  store i32 1, ptr %5, align 4
  br label %41

23:                                               ; preds = %1
  %24 = load ptr, ptr %3, align 8, !tbaa !52
  %25 = getelementptr inbounds i8, ptr %24, i64 -5
  %26 = getelementptr inbounds nuw %struct.sdshdr16, ptr %25, i32 0, i32 0
  %27 = load i16, ptr %26, align 1, !tbaa !63
  %28 = zext i16 %27 to i64
  store i64 %28, ptr %2, align 8
  store i32 1, ptr %5, align 4
  br label %41

29:                                               ; preds = %1
  %30 = load ptr, ptr %3, align 8, !tbaa !52
  %31 = getelementptr inbounds i8, ptr %30, i64 -9
  %32 = getelementptr inbounds nuw %struct.sdshdr32, ptr %31, i32 0, i32 0
  %33 = load i32, ptr %32, align 1, !tbaa !46
  %34 = zext i32 %33 to i64
  store i64 %34, ptr %2, align 8
  store i32 1, ptr %5, align 4
  br label %41

35:                                               ; preds = %1
  %36 = load ptr, ptr %3, align 8, !tbaa !52
  %37 = getelementptr inbounds i8, ptr %36, i64 -17
  %38 = getelementptr inbounds nuw %struct.sdshdr64, ptr %37, i32 0, i32 0
  %39 = load i64, ptr %38, align 1, !tbaa !65
  store i64 %39, ptr %2, align 8
  store i32 1, ptr %5, align 4
  br label %41

40:                                               ; preds = %1
  store i64 0, ptr %2, align 8
  store i32 1, ptr %5, align 4
  br label %41

41:                                               ; preds = %40, %35, %29, %23, %17, %12
  call void @llvm.lifetime.end.p0(i64 1, ptr %4) #16
  %42 = load i64, ptr %2, align 8
  ret i64 %42
}

; Function Attrs: nounwind uwtable
define dso_local i32 @getHostnamePingExtSize() #0 {
  %1 = alloca i32, align 4
  %2 = load ptr, ptr @myself, align 8, !tbaa !5
  %3 = getelementptr inbounds nuw %struct._clusterNode, ptr %2, i32 0, i32 22
  %4 = load ptr, ptr %3, align 8, !tbaa !77
  %5 = call i64 @sdslen(ptr noundef %4)
  %6 = icmp eq i64 %5, 0
  br i1 %6, label %7, label %8

7:                                                ; preds = %0
  store i32 0, ptr %1, align 4
  br label %16

8:                                                ; preds = %0
  %9 = load ptr, ptr @myself, align 8, !tbaa !5
  %10 = getelementptr inbounds nuw %struct._clusterNode, ptr %9, i32 0, i32 22
  %11 = load ptr, ptr %10, align 8, !tbaa !77
  %12 = call i64 @sdslen(ptr noundef %11)
  %13 = add i64 %12, 1
  %14 = trunc i64 %13 to i32
  %15 = call i32 @getAlignedPingExtSize(i32 noundef %14)
  store i32 %15, ptr %1, align 4
  br label %16

16:                                               ; preds = %8, %7
  %17 = load i32, ptr %1, align 4
  ret i32 %17
}