; Function Attrs: mustprogress nofree norecurse nosync nounwind willreturn memory(read, inaccessiblemem: none) uwtable
define dso_local range(i32 8, 1) i32 @getHostnamePingExtSize() local_unnamed_addr #0 {
  %1 = load ptr, ptr @myself, align 8, !tbaa !46
  %2 = getelementptr inbounds nuw i8, ptr %1, i64 2312
  %3 = load ptr, ptr %2, align 8, !tbaa !73
  %4 = getelementptr inbounds i8, ptr %3, i64 -1
  %5 = load i8, ptr %4, align 1, !tbaa !50
  %6 = zext i8 %5 to i32
  %7 = and i32 %6, 7
  switch i32 %7, label %sdslen.exit.thread [
    i32 0, label %8
    i32 1, label %11
    i32 2, label %15
    i32 3, label %19
    i32 4, label %23
  ]

8:                                                ; preds = %0
  %9 = lshr i32 %6, 3
  %10 = zext nneg i32 %9 to i64
  br label %sdslen.exit

11:                                               ; preds = %0
  %12 = getelementptr inbounds i8, ptr %3, i64 -3
  %13 = load i8, ptr %12, align 1, !tbaa !50
  %14 = zext i8 %13 to i64
  br label %sdslen.exit

15:                                               ; preds = %0
  %16 = getelementptr inbounds i8, ptr %3, i64 -5
  %17 = load i16, ptr %16, align 1, !tbaa !51
  %18 = zext i16 %17 to i64
  br label %sdslen.exit

19:                                               ; preds = %0
  %20 = getelementptr inbounds i8, ptr %3, i64 -9
  %21 = load i32, ptr %20, align 1, !tbaa !38
  %22 = zext i32 %21 to i64
  br label %sdslen.exit

23:                                               ; preds = %0
  %24 = getelementptr inbounds i8, ptr %3, i64 -17
  %25 = load i64, ptr %24, align 1, !tbaa !53
  br label %sdslen.exit

sdslen.exit:                                      ; preds = %8, %11, %15, %19, %23
  %.0.i = phi i64 [ %25, %23 ], [ %22, %19 ], [ %18, %15 ], [ %14, %11 ], [ %10, %8 ]
  %26 = icmp eq i64 %.0.i, 0
  br i1 %26, label %sdslen.exit.thread, label %27

27:                                               ; preds = %sdslen.exit
  switch i32 %7, label %default.unreachable [
    i32 0, label %28
    i32 1, label %31
    i32 2, label %35
    i32 3, label %39
    i32 4, label %43
  ]

28:                                               ; preds = %27
  %29 = lshr i32 %6, 3
  %30 = zext nneg i32 %29 to i64
  br label %sdslen.exit2

31:                                               ; preds = %27
  %32 = getelementptr inbounds i8, ptr %3, i64 -3
  %33 = load i8, ptr %32, align 1, !tbaa !50
  %34 = zext i8 %33 to i64
  br label %sdslen.exit2

35:                                               ; preds = %27
  %36 = getelementptr inbounds i8, ptr %3, i64 -5
  %37 = load i16, ptr %36, align 1, !tbaa !51
  %38 = zext i16 %37 to i64
  br label %sdslen.exit2

39:                                               ; preds = %27
  %40 = getelementptr inbounds i8, ptr %3, i64 -9
  %41 = load i32, ptr %40, align 1, !tbaa !38
  %42 = zext i32 %41 to i64
  br label %sdslen.exit2

43:                                               ; preds = %27
  %44 = getelementptr inbounds i8, ptr %3, i64 -17
  %45 = load i64, ptr %44, align 1, !tbaa !53
  br label %sdslen.exit2

default.unreachable:                              ; preds = %27
  unreachable

sdslen.exit2:                                     ; preds = %28, %31, %35, %39, %43
  %.0.i1 = phi i64 [ %45, %43 ], [ %42, %39 ], [ %38, %35 ], [ %34, %31 ], [ %30, %28 ]
  %46 = trunc i64 %.0.i1 to i32
  %47 = and i32 %46, -8
  %48 = add i32 %47, 16
  br label %sdslen.exit.thread

sdslen.exit.thread:                               ; preds = %0, %sdslen.exit, %sdslen.exit2
  %.0 = phi i32 [ %48, %sdslen.exit2 ], [ 0, %sdslen.exit ], [ 0, %0 ]
  ret i32 %.0
}